target datalayout = "e-m:e-p270:32:32-p271:32:32-p272:64:64-i64:64-i128:128-f80:128-n8:16:32:64-S128"
target triple = "x86_64-pc-linux-gnu"

%class.Node = type <{ ptr, ptr, ptr, i32, i32, i32, i32, i32, i32, i32, [4 x i8] }>
%class.anon.29 = type { i8 }
%class.Node.base = type <{ ptr, ptr, ptr, i32, i32, i32, i32, i32, i32, i32 }>
%class.BoolNode = type { %class.Node.base, %struct.BoolTest }
%struct.BoolTest = type { i32 }
%class.TypeLong = type { %class.TypeInteger.base, i64, i64 }
%class.TypeInteger.base = type { %class.Type.base, i16 }
%class.Type.base = type <{ ptr, ptr, i32 }>
%class.anon.22 = type { i8 }
%class.ShenandoahThreadLocalData = type { i8, i8, i8, [5 x i8], %class.SATBMarkQueue, ptr, i64, double }
%class.SATBMarkQueue = type <{ %class.PtrQueue, i8, [7 x i8] }>
%class.PtrQueue = type { i64, ptr }
%class.Thread = type { %class.ThreadShadow.base, i64, [43 x i64], ptr, ptr, i32, ptr, i64, i64, %class.ThreadLocalAllocBuffer, i64, %class.ThreadHeapSampler, %class.ThreadStatisticalInfo, %class.JfrThreadLocal, ptr, ptr, ptr, ptr, ptr, ptr, i64, i32, i32, ptr, i32, i32, i32, i32, i8, ptr }
%class.ThreadShadow.base = type <{ ptr, ptr, ptr, i32 }>
%class.ThreadLocalAllocBuffer = type <{ ptr, ptr, ptr, ptr, ptr, i64, i64, i64, i64, i32, i32, i32, i32, i64, %class.AdaptiveWeightedAverage, [4 x i8] }>
%class.AdaptiveWeightedAverage = type { float, i32, i32, i8, float }
%class.ThreadHeapSampler = type { i64 }
%class.ThreadStatisticalInfo = type { i64, i64 }
%class.JfrThreadLocal = type <{ ptr, ptr, ptr, ptr, ptr, ptr, ptr, ptr, ptr, ptr, %class.RefCountHandle, i64, i64, i64, i64, i64, i64, i64, i64, i64, i64, i64, i32, i32, i32, i16, i8, i8, i8, i8, i8, [5 x i8] }>
%class.RefCountHandle = type { ptr }

; Function Attrs: mustprogress nounwind uwtable
define linkonce_odr hidden noundef i64 @_ZZN6Thread14gc_data_offsetEvENKUlvE_clEv(ptr noundef nonnull align 1 dereferenceable(1) %0) #1 comdat align 2 {
  %2 = alloca ptr, align 8
  %3 = alloca [888 x i8], align 16
  %4 = alloca ptr, align 8
  %5 = alloca ptr, align 8
  store ptr %0, ptr %2, align 8
  %6 = getelementptr inbounds [888 x i8], ptr %3, i64 0, i64 0
  store ptr %6, ptr %4, align 8
  %7 = load ptr, ptr %4, align 8
  %8 = getelementptr inbounds %class.Thread, ptr %7, i32 0, i32 2
  store ptr %8, ptr %5, align 8
  %9 = load ptr, ptr %5, align 8
  %10 = getelementptr inbounds [888 x i8], ptr %3, i64 0, i64 0
  %11 = ptrtoint ptr %9 to i64
  %12 = ptrtoint ptr %10 to i64
  %13 = sub i64 %11, %12
  ret i64 %13
}

; Function Attrs: mustprogress nounwind uwtable
define linkonce_odr hidden noundef i32 @_Zpl8ByteSizeS_(i32 noundef %0, i32 noundef %1) #1 comdat {
  %3 = alloca i32, align 4
  %4 = alloca i32, align 4
  store i32 %0, ptr %3, align 4
  store i32 %1, ptr %4, align 4
  %5 = load i32, ptr %3, align 4
  %6 = call noundef i32 @_Z8in_bytes8ByteSize(i32 noundef %5)
  %7 = load i32, ptr %4, align 4
  %8 = call noundef i32 @_Z8in_bytes8ByteSize(i32 noundef %7)
  %9 = add nsw i32 %6, %8
  %10 = call noundef i32 @_Z11in_ByteSizei(i32 noundef %9)
  ret i32 %10
}

; Function Attrs: mustprogress nounwind uwtable
define linkonce_odr hidden noundef i32 @_Z11in_ByteSizei(i32 noundef %0) #1 comdat {
  %2 = alloca i32, align 4
  store i32 %0, ptr %2, align 4
  %3 = load i32, ptr %2, align 4
  ret i32 %3
}

; Function Attrs: mustprogress nounwind uwtable
define linkonce_odr hidden noundef i64 @_ZZN25ShenandoahThreadLocalData15gc_state_offsetEvENKUlvE_clEv(ptr noundef nonnull align 1 dereferenceable(1) %0) #1 comdat align 2 {
  %2 = alloca ptr, align 8
  %3 = alloca [56 x i8], align 16
  %4 = alloca ptr, align 8
  %5 = alloca ptr, align 8
  store ptr %0, ptr %2, align 8
  %6 = getelementptr inbounds [56 x i8], ptr %3, i64 0, i64 0
  store ptr %6, ptr %4, align 8
  %7 = load ptr, ptr %4, align 8
  %8 = getelementptr inbounds %class.ShenandoahThreadLocalData, ptr %7, i32 0, i32 0
  store ptr %8, ptr %5, align 8
  %9 = load ptr, ptr %5, align 8
  %10 = getelementptr inbounds [56 x i8], ptr %3, i64 0, i64 0
  %11 = ptrtoint ptr %9 to i64
  %12 = ptrtoint ptr %10 to i64
  %13 = sub i64 %11, %12
  ret i64 %13
}

; Function Attrs: mustprogress nounwind uwtable
define linkonce_odr hidden noundef i32 @_ZN6Thread14gc_data_offsetEv() #1 comdat align 2 {
  %1 = alloca %class.anon.22, align 1
  %2 = call noundef i64 @_ZZN6Thread14gc_data_offsetEvENKUlvE_clEv(ptr noundef nonnull align 1 dereferenceable(1) %1)
  %3 = trunc i64 %2 to i32
  %4 = call noundef i32 @_Z11in_ByteSizei(i32 noundef %3)
  ret i32 %4
}

; Function Attrs: mustprogress nounwind uwtable
define linkonce_odr hidden noundef i64 @_ZNK8TypeLong7get_conEv(ptr noundef nonnull align 8 dereferenceable(40) %0) #1 comdat align 2 {
  %2 = alloca ptr, align 8
  store ptr %0, ptr %2, align 8
  %3 = load ptr, ptr %2, align 8
  %4 = getelementptr inbounds %class.TypeLong, ptr %3, i32 0, i32 1
  %5 = load i64, ptr %4, align 8
  ret i64 %5
}

; Function Attrs: mustprogress nounwind uwtable
define linkonce_odr hidden noundef ptr @_ZNK4Type7is_longEv(ptr noundef nonnull align 8 dereferenceable(20) %0) #1 comdat align 2 {
  %2 = alloca ptr, align 8
  store ptr %0, ptr %2, align 8
  %3 = load ptr, ptr %2, align 8
  ret ptr %3
}

; Function Attrs: mustprogress nounwind uwtable
define linkonce_odr hidden noundef zeroext i1 @_ZNK4Node7is_AddPEv(ptr noundef nonnull align 8 dereferenceable(52) %0) #1 comdat align 2 {
  %2 = alloca ptr, align 8
  store ptr %0, ptr %2, align 8
  %3 = load ptr, ptr %2, align 8
  %4 = getelementptr inbounds %class.Node, ptr %3, i32 0, i32 8
  %5 = load i32, ptr %4, align 4
  %6 = and i32 %5, 1023
  %7 = icmp eq i32 %6, 512
  ret i1 %7
}

; Function Attrs: mustprogress nounwind uwtable
define linkonce_odr hidden noundef i32 @_Z8in_bytes8ByteSize(i32 noundef %0) #1 comdat {
  %2 = alloca i32, align 4
  store i32 %0, ptr %2, align 4
  %3 = load i32, ptr %2, align 4
  ret i32 %3
}

; Function Attrs: mustprogress nounwind uwtable
define linkonce_odr hidden noundef i32 @_ZN25ShenandoahThreadLocalData15gc_state_offsetEv() #1 comdat align 2 {
  %1 = alloca %class.anon.29, align 1
  %2 = call noundef i32 @_ZN6Thread14gc_data_offsetEv()
  %3 = call noundef i64 @_ZZN25ShenandoahThreadLocalData15gc_state_offsetEvENKUlvE_clEv(ptr noundef nonnull align 1 dereferenceable(1) %1)
  %4 = trunc i64 %3 to i32
  %5 = call noundef i32 @_Z11in_ByteSizei(i32 noundef %4)
  %6 = call noundef i32 @_Zpl8ByteSizeS_(i32 noundef %2, i32 noundef %5)
  ret i32 %6
}

; Function Attrs: mustprogress nounwind uwtable
define linkonce_odr hidden noundef zeroext i1 @_ZNK4Node7is_LoadEv(ptr noundef nonnull align 8 dereferenceable(52) %0) #1 comdat align 2 {
  %2 = alloca ptr, align 8
  store ptr %0, ptr %2, align 8
  %3 = load ptr, ptr %2, align 8
  %4 = getelementptr inbounds %class.Node, ptr %3, i32 0, i32 8
  %5 = load i32, ptr %4, align 4
  %6 = and i32 %5, 63
  %7 = icmp eq i32 %6, 48
  ret i1 %7
}

; Function Attrs: mustprogress nounwind uwtable
define linkonce_odr hidden noundef zeroext i1 @_ZNK4Node6is_ConEv(ptr noundef nonnull align 8 dereferenceable(52) %0) #1 comdat align 2 {
  %2 = alloca ptr, align 8
  store ptr %0, ptr %2, align 8
  %3 = load ptr, ptr %2, align 8
  %4 = getelementptr inbounds %class.Node, ptr %3, i32 0, i32 9
  %5 = load i32, ptr %4, align 8
  %6 = and i32 %5, 16
  %7 = icmp ne i32 %6, 0
  ret i1 %7
}

; Function Attrs: mustprogress nounwind uwtable
define hidden noundef zeroext i1 @_ZN22ShenandoahBarrierSetC224is_shenandoah_state_loadEP4Node(ptr noundef %0) #1 align 2 {
  %2 = alloca i1, align 1
  %3 = alloca ptr, align 8
  %4 = alloca i32, align 4
  store ptr %0, ptr %3, align 8
  %5 = load ptr, ptr %3, align 8
  %6 = call noundef zeroext i1 @_ZNK4Node7is_LoadEv(ptr noundef nonnull align 8 dereferenceable(52) %5)
  br i1 %6, label %8, label %7

7:                                                ; preds = %1
  store i1 false, ptr %2, align 1
  br label %43

8:                                                ; preds = %1
  %9 = call noundef i32 @_ZN25ShenandoahThreadLocalData15gc_state_offsetEv()
  %10 = call noundef i32 @_Z8in_bytes8ByteSize(i32 noundef %9)
  store i32 %10, ptr %4, align 4
  %11 = load ptr, ptr %3, align 8
  %12 = call noundef ptr @_ZNK4Node2inEj(ptr noundef nonnull align 8 dereferenceable(52) %11, i32 noundef 2)
  %13 = call noundef zeroext i1 @_ZNK4Node7is_AddPEv(ptr noundef nonnull align 8 dereferenceable(52) %12)
  br i1 %13, label %14, label %41

14:                                               ; preds = %8
  %15 = load ptr, ptr %3, align 8
  %16 = call noundef ptr @_ZNK4Node2inEj(ptr noundef nonnull align 8 dereferenceable(52) %15, i32 noundef 2)
  %17 = call noundef ptr @_ZNK4Node2inEj(ptr noundef nonnull align 8 dereferenceable(52) %16, i32 noundef 2)
  %18 = load ptr, ptr %17, align 8
  %19 = getelementptr inbounds ptr, ptr %18, i64 0
  %20 = load ptr, ptr %19, align 8
  %21 = call noundef i32 %20(ptr noundef nonnull align 8 dereferenceable(52) %17)
  %22 = icmp eq i32 %21, 347
  br i1 %22, label %23, label %41

23:                                               ; preds = %14
  %24 = load ptr, ptr %3, align 8
  %25 = call noundef ptr @_ZNK4Node2inEj(ptr noundef nonnull align 8 dereferenceable(52) %24, i32 noundef 2)
  %26 = call noundef ptr @_ZNK4Node2inEj(ptr noundef nonnull align 8 dereferenceable(52) %25, i32 noundef 3)
  %27 = call noundef zeroext i1 @_ZNK4Node6is_ConEv(ptr noundef nonnull align 8 dereferenceable(52) %26)
  br i1 %27, label %28, label %41

28:                                               ; preds = %23
  %29 = load ptr, ptr %3, align 8
  %30 = call noundef ptr @_ZNK4Node2inEj(ptr noundef nonnull align 8 dereferenceable(52) %29, i32 noundef 2)
  %31 = call noundef ptr @_ZNK4Node2inEj(ptr noundef nonnull align 8 dereferenceable(52) %30, i32 noundef 3)
  %32 = load ptr, ptr %31, align 8
  %33 = getelementptr inbounds ptr, ptr %32, i64 5
  %34 = load ptr, ptr %33, align 8
  %35 = call noundef ptr %34(ptr noundef nonnull align 8 dereferenceable(52) %31)
  %36 = call noundef ptr @_ZNK4Type7is_longEv(ptr noundef nonnull align 8 dereferenceable(20) %35)
  %37 = call noundef i64 @_ZNK8TypeLong7get_conEv(ptr noundef nonnull align 8 dereferenceable(40) %36)
  %38 = load i32, ptr %4, align 4
  %39 = sext i32 %38 to i64
  %40 = icmp eq i64 %37, %39
  br label %41

41:                                               ; preds = %28, %23, %14, %8
  %42 = phi i1 [ false, %23 ], [ false, %14 ], [ false, %8 ], [ %40, %28 ]
  store i1 %42, ptr %2, align 1
  br label %43

43:                                               ; preds = %41, %7
  %44 = load i1, ptr %2, align 1
  ret i1 %44
}

; Function Attrs: mustprogress nounwind uwtable
define linkonce_odr hidden noundef zeroext i1 @_ZNK4Node6is_CmpEv(ptr noundef nonnull align 8 dereferenceable(52) %0) #1 comdat align 2 {
  %2 = alloca ptr, align 8
  store ptr %0, ptr %2, align 8
  %3 = load ptr, ptr %2, align 8
  %4 = getelementptr inbounds %class.Node, ptr %3, i32 0, i32 8
  %5 = load i32, ptr %4, align 4
  %6 = and i32 %5, 255
  %7 = icmp eq i32 %6, 192
  ret i1 %7
}

; Function Attrs: mustprogress nounwind uwtable
define linkonce_odr hidden noundef ptr @_ZNK4Node7as_BoolEv(ptr noundef nonnull align 8 dereferenceable(52) %0) #1 comdat align 2 {
  %2 = alloca ptr, align 8
  store ptr %0, ptr %2, align 8
  %3 = load ptr, ptr %2, align 8
  ret ptr %3
}

; Function Attrs: mustprogress nounwind uwtable
define linkonce_odr hidden noundef ptr @_ZNK4Node2inEj(ptr noundef nonnull align 8 dereferenceable(52) %0, i32 noundef %1) #1 comdat align 2 {
  %3 = alloca ptr, align 8
  %4 = alloca i32, align 4
  store ptr %0, ptr %3, align 8
  store i32 %1, ptr %4, align 4
  %5 = load ptr, ptr %3, align 8
  %6 = getelementptr inbounds %class.Node, ptr %5, i32 0, i32 1
  %7 = load ptr, ptr %6, align 8
  %8 = load i32, ptr %4, align 4
  %9 = zext i32 %8 to i64
  %10 = getelementptr inbounds ptr, ptr %7, i64 %9
  %11 = load ptr, ptr %10, align 8
  ret ptr %11
}

; Function Attrs: mustprogress nounwind uwtable
define hidden noundef zeroext i1 @_ZN22ShenandoahBarrierSetC224is_shenandoah_marking_ifEP11PhaseValuesP4Node(ptr noundef %0, ptr noundef %1) #1 align 2 {
  %3 = alloca i1, align 1
  %4 = alloca ptr, align 8
  %5 = alloca ptr, align 8
  %6 = alloca ptr, align 8
  %7 = alloca ptr, align 8
  store ptr %0, ptr %4, align 8
  store ptr %1, ptr %5, align 8
  %8 = load ptr, ptr %5, align 8
  %9 = load ptr, ptr %8, align 8
  %10 = getelementptr inbounds ptr, ptr %9, i64 0
  %11 = load ptr, ptr %10, align 8
  %12 = call noundef i32 %11(ptr noundef nonnull align 8 dereferenceable(52) %8)
  %13 = icmp ne i32 %12, 177
  br i1 %13, label %14, label %15

14:                                               ; preds = %2
  store i1 false, ptr %3, align 1
  br label %54

15:                                               ; preds = %2
  %16 = load ptr, ptr %5, align 8
  %17 = call noundef ptr @_ZNK4Node2inEj(ptr noundef nonnull align 8 dereferenceable(52) %16, i32 noundef 1)
  store ptr %17, ptr %6, align 8
  %18 = load ptr, ptr %6, align 8
  %19 = call noundef ptr @_ZNK4Node2inEj(ptr noundef nonnull align 8 dereferenceable(52) %18, i32 noundef 1)
  store ptr %19, ptr %7, align 8
  %20 = load ptr, ptr %6, align 8
  %21 = call noundef ptr @_ZNK4Node7as_BoolEv(ptr noundef nonnull align 8 dereferenceable(52) %20)
  %22 = getelementptr inbounds %class.BoolNode, ptr %21, i32 0, i32 1
  %23 = getelementptr inbounds %struct.BoolTest, ptr %22, i32 0, i32 0
  %24 = load i32, ptr %23, align 4
  %25 = icmp eq i32 %24, 4
  br i1 %25, label %26, label %53

26:                                               ; preds = %15
  %27 = load ptr, ptr %7, align 8
  %28 = call noundef zeroext i1 @_ZNK4Node6is_CmpEv(ptr noundef nonnull align 8 dereferenceable(52) %27)
  br i1 %28, label %29, label %53

29:                                               ; preds = %26
  %30 = load ptr, ptr %7, align 8
  %31 = call noundef ptr @_ZNK4Node2inEj(ptr noundef nonnull align 8 dereferenceable(52) %30, i32 noundef 2)
  %32 = load ptr, ptr %4, align 8
  %33 = call noundef ptr @_ZN11PhaseValues6intconEi(ptr noundef nonnull align 8 dereferenceable(2400) %32, i32 noundef 0)
  %34 = icmp eq ptr %31, %33
  br i1 %34, label %35, label %53

35:                                               ; preds = %29
  %36 = load ptr, ptr %7, align 8
  %37 = call noundef ptr @_ZNK4Node2inEj(ptr noundef nonnull align 8 dereferenceable(52) %36, i32 noundef 1)
  %38 = call noundef ptr @_ZNK4Node2inEj(ptr noundef nonnull align 8 dereferenceable(52) %37, i32 noundef 1)
  %39 = call noundef zeroext i1 @_ZN22ShenandoahBarrierSetC224is_shenandoah_state_loadEP4Node(ptr noundef %38)
  br i1 %39, label %40, label %53

40:                                               ; preds = %35
  %41 = load ptr, ptr %7, align 8
  %42 = call noundef ptr @_ZNK4Node2inEj(ptr noundef nonnull align 8 dereferenceable(52) %41, i32 noundef 1)
  %43 = call noundef ptr @_ZNK4Node2inEj(ptr noundef nonnull align 8 dereferenceable(52) %42, i32 noundef 2)
  %44 = call noundef zeroext i1 @_ZNK4Node6is_ConEv(ptr noundef nonnull align 8 dereferenceable(52) %43)
  br i1 %44, label %45, label %53

45:                                               ; preds = %40
  %46 = load ptr, ptr %7, align 8
  %47 = call noundef ptr @_ZNK4Node2inEj(ptr noundef nonnull align 8 dereferenceable(52) %46, i32 noundef 1)
  %48 = call noundef ptr @_ZNK4Node2inEj(ptr noundef nonnull align 8 dereferenceable(52) %47, i32 noundef 2)
  %49 = load ptr, ptr %4, align 8
  %50 = call noundef ptr @_ZN11PhaseValues6intconEi(ptr noundef nonnull align 8 dereferenceable(2400) %49, i32 noundef 2)
  %51 = icmp eq ptr %48, %50
  br i1 %51, label %52, label %53

52:                                               ; preds = %45
  store i1 true, ptr %3, align 1
  br label %54

53:                                               ; preds = %45, %40, %35, %29, %26, %15
  store i1 false, ptr %3, align 1
  br label %54

54:                                               ; preds = %53, %52, %14
  %55 = load i1, ptr %3, align 1
  ret i1 %55
}