; Function Attrs: mustprogress nounwind uwtable
define hidden noundef zeroext i1 @_ZN22ShenandoahBarrierSetC224is_shenandoah_marking_ifEP11PhaseValuesP4Node(ptr noundef %0, ptr noundef %1) local_unnamed_addr #1 align 2 {
  %3 = load ptr, ptr %1, align 8
  %4 = load ptr, ptr %3, align 8
  %5 = tail call noundef i32 %4(ptr noundef nonnull align 8 dereferenceable(52) %1) #14
  %.not = icmp eq i32 %5, 177
  br i1 %.not, label %6, label %92

6:                                                ; preds = %2
  %7 = getelementptr inbounds i8, ptr %1, i64 8
  %8 = load ptr, ptr %7, align 8
  %9 = getelementptr inbounds i8, ptr %8, i64 8
  %10 = load ptr, ptr %9, align 8
  %11 = getelementptr inbounds i8, ptr %10, i64 8
  %12 = load ptr, ptr %11, align 8
  %13 = getelementptr inbounds i8, ptr %12, i64 8
  %14 = load ptr, ptr %13, align 8
  %15 = getelementptr inbounds i8, ptr %10, i64 52
  %16 = load i32, ptr %15, align 4
  %17 = icmp eq i32 %16, 4
  br i1 %17, label %18, label %_ZN22ShenandoahBarrierSetC224is_shenandoah_state_loadEP4Node.exit.thread

18:                                               ; preds = %6
  %19 = getelementptr inbounds i8, ptr %14, i64 44
  %20 = load i32, ptr %19, align 4
  %21 = and i32 %20, 255
  %22 = icmp eq i32 %21, 192
  br i1 %22, label %23, label %_ZN22ShenandoahBarrierSetC224is_shenandoah_state_loadEP4Node.exit.thread

23:                                               ; preds = %18
  %24 = getelementptr inbounds i8, ptr %14, i64 8
  %25 = load ptr, ptr %24, align 8
  %26 = getelementptr inbounds i8, ptr %25, i64 16
  %27 = load ptr, ptr %26, align 8
  %28 = tail call noundef ptr @_ZN11PhaseValues6intconEi(ptr noundef nonnull align 8 dereferenceable(2400) %0, i32 noundef 0) #14
  %29 = icmp eq ptr %27, %28
  br i1 %29, label %30, label %_ZN22ShenandoahBarrierSetC224is_shenandoah_state_loadEP4Node.exit.thread

30:                                               ; preds = %23
  %31 = load ptr, ptr %24, align 8
  %32 = getelementptr inbounds i8, ptr %31, i64 8
  %33 = load ptr, ptr %32, align 8
  %34 = getelementptr inbounds i8, ptr %33, i64 8
  %35 = load ptr, ptr %34, align 8
  %36 = getelementptr inbounds i8, ptr %35, i64 8
  %37 = load ptr, ptr %36, align 8
  %38 = getelementptr inbounds i8, ptr %37, i64 44
  %39 = load i32, ptr %38, align 4
  %40 = and i32 %39, 63
  %41 = icmp eq i32 %40, 48
  br i1 %41, label %42, label %_ZN22ShenandoahBarrierSetC224is_shenandoah_state_loadEP4Node.exit.thread

42:                                               ; preds = %30
  %43 = getelementptr inbounds i8, ptr %37, i64 8
  %44 = load ptr, ptr %43, align 8
  %45 = getelementptr inbounds i8, ptr %44, i64 16
  %46 = load ptr, ptr %45, align 8
  %47 = getelementptr inbounds i8, ptr %46, i64 44
  %48 = load i32, ptr %47, align 4
  %49 = and i32 %48, 1023
  %50 = icmp eq i32 %49, 512
  br i1 %50, label %51, label %_ZN22ShenandoahBarrierSetC224is_shenandoah_state_loadEP4Node.exit.thread

51:                                               ; preds = %42
  %52 = getelementptr inbounds i8, ptr %46, i64 8
  %53 = load ptr, ptr %52, align 8
  %54 = getelementptr inbounds i8, ptr %53, i64 16
  %55 = load ptr, ptr %54, align 8
  %56 = load ptr, ptr %55, align 8
  %57 = load ptr, ptr %56, align 8
  %58 = tail call noundef i32 %57(ptr noundef nonnull align 8 dereferenceable(52) %55) #14
  %59 = icmp eq i32 %58, 347
  br i1 %59, label %60, label %_ZN22ShenandoahBarrierSetC224is_shenandoah_state_loadEP4Node.exit.thread

60:                                               ; preds = %51
  %61 = load ptr, ptr %43, align 8
  %62 = getelementptr inbounds i8, ptr %61, i64 16
  %63 = load ptr, ptr %62, align 8
  %64 = getelementptr inbounds i8, ptr %63, i64 8
  %65 = load ptr, ptr %64, align 8
  %66 = getelementptr inbounds i8, ptr %65, i64 24
  %67 = load ptr, ptr %66, align 8
  %68 = getelementptr inbounds i8, ptr %67, i64 48
  %69 = load i32, ptr %68, align 8
  %70 = and i32 %69, 16
  %.not.i = icmp eq i32 %70, 0
  br i1 %.not.i, label %_ZN22ShenandoahBarrierSetC224is_shenandoah_state_loadEP4Node.exit.thread, label %_ZN22ShenandoahBarrierSetC224is_shenandoah_state_loadEP4Node.exit

_ZN22ShenandoahBarrierSetC224is_shenandoah_state_loadEP4Node.exit: ; preds = %60
  %71 = load ptr, ptr %67, align 8
  %72 = getelementptr inbounds i8, ptr %71, i64 40
  %73 = load ptr, ptr %72, align 8
  %74 = tail call noundef ptr %73(ptr noundef nonnull align 8 dereferenceable(52) %67) #14
  %75 = getelementptr inbounds i8, ptr %74, i64 24
  %76 = load i64, ptr %75, align 8
  %77 = icmp eq i64 %76, 40
  br i1 %77, label %78, label %_ZN22ShenandoahBarrierSetC224is_shenandoah_state_loadEP4Node.exit.thread

78:                                               ; preds = %_ZN22ShenandoahBarrierSetC224is_shenandoah_state_loadEP4Node.exit
  %79 = load ptr, ptr %24, align 8
  %80 = getelementptr inbounds i8, ptr %79, i64 8
  %81 = load ptr, ptr %80, align 8
  %82 = getelementptr inbounds i8, ptr %81, i64 8
  %83 = load ptr, ptr %82, align 8
  %84 = getelementptr inbounds i8, ptr %83, i64 16
  %85 = load ptr, ptr %84, align 8
  %86 = getelementptr inbounds i8, ptr %85, i64 48
  %87 = load i32, ptr %86, align 8
  %88 = and i32 %87, 16
  %.not13 = icmp eq i32 %88, 0
  br i1 %.not13, label %_ZN22ShenandoahBarrierSetC224is_shenandoah_state_loadEP4Node.exit.thread, label %89

89:                                               ; preds = %78
  %90 = tail call noundef ptr @_ZN11PhaseValues6intconEi(ptr noundef nonnull align 8 dereferenceable(2400) %0, i32 noundef 2) #14
  %91 = icmp eq ptr %85, %90
  br i1 %91, label %92, label %_ZN22ShenandoahBarrierSetC224is_shenandoah_state_loadEP4Node.exit.thread

_ZN22ShenandoahBarrierSetC224is_shenandoah_state_loadEP4Node.exit.thread: ; preds = %42, %51, %60, %30, %89, %78, %_ZN22ShenandoahBarrierSetC224is_shenandoah_state_loadEP4Node.exit, %23, %18, %6
  br label %92

92:                                               ; preds = %89, %2, %_ZN22ShenandoahBarrierSetC224is_shenandoah_state_loadEP4Node.exit.thread
  %.0 = phi i1 [ false, %_ZN22ShenandoahBarrierSetC224is_shenandoah_state_loadEP4Node.exit.thread ], [ false, %2 ], [ true, %89 ]
  ret i1 %.0
}